target datalayout = "e-m:e-p270:32:32-p271:32:32-p272:64:64-i64:64-i128:128-f80:128-n8:16:32:64-S128"
target triple = "x86_64-pc-linux-gnu"

%struct._zend_executor_globals = type { %struct._zval_struct, %struct._zval_struct, [32 x ptr], ptr, ptr, %struct._zend_array, %struct._zend_array, ptr, i32, i8, %struct._zval_struct, i32, ptr, ptr, ptr, ptr, ptr, ptr, i64, ptr, ptr, i32, ptr, i32, i64, i32, i32, i32, i8, i8, %struct.zend_atomic_bool_s, %struct.zend_atomic_bool_s, ptr, i64, ptr, ptr, %struct._zend_array, %struct._zend_array, i32, i8, %struct._zval_struct, %struct._zval_struct, %struct._zend_stack, %struct._zend_stack, %struct._zend_stack, ptr, i32, i32, i64, ptr, ptr, ptr, %struct._zend_objects_store, %struct._zend_lazy_objects_store, ptr, ptr, ptr, [3 x %struct._zend_op], ptr, i8, i8, i64, i32, i32, ptr, [16 x %struct._HashTableIterator], ptr, %union._zend_function, %struct._zend_op, %struct._zend_array, i64, %struct.zend_get_gc_buffer, ptr, ptr, ptr, i64, i8, i32, ptr, ptr, i64, %struct._zend_call_stack, i64, i64, %struct._zend_strtod_state, [6 x ptr] }
%struct.zend_atomic_bool_s = type { i8 }
%struct._zval_struct = type { %union._zend_value, %union.anon, %union.anon.2 }
%union._zend_value = type { i64 }
%union.anon = type { i32 }
%union.anon.2 = type { i32 }
%struct._zend_stack = type { i32, i32, i32, ptr }
%struct._zend_objects_store = type { ptr, i32, i32, i32 }
%struct._zend_lazy_objects_store = type { %struct._zend_array }
%struct._HashTableIterator = type { ptr, i32, i32 }
%union._zend_function = type { %struct._zend_op_array }
%struct._zend_op_array = type { i8, [3 x i8], i32, ptr, ptr, ptr, i32, i32, ptr, ptr, ptr, ptr, i32, ptr, i32, i32, i32, ptr, ptr, ptr, ptr, ptr, i32, i32, ptr, ptr, ptr, i32, i32, i32, i32, ptr, ptr, [6 x ptr] }
%struct._zend_op = type { ptr, %union._znode_op, %union._znode_op, %union._znode_op, i32, i32, i8, i8, i8, i8 }
%union._znode_op = type { i32 }
%struct._zend_array = type { %struct._zend_refcounted_h, %union.anon.4, i32, %union.anon.6, i32, i32, i32, i32, i64, ptr }
%struct._zend_refcounted_h = type { i32, %union.anon.3 }
%union.anon.3 = type { i32 }
%union.anon.4 = type { i32 }
%union.anon.6 = type { ptr }
%struct.zend_get_gc_buffer = type { ptr, ptr, ptr }
%struct._zend_call_stack = type { ptr, i64 }
%struct._zend_strtod_state = type { [8 x ptr], ptr, ptr }
%struct._zend_execute_data = type { ptr, ptr, ptr, ptr, %struct._zval_struct, ptr, ptr, ptr, ptr }
%struct._spl_dllist_object = type { ptr, ptr, i32, i32, ptr, ptr, ptr, ptr, ptr, ptr, %struct._zend_object }
%struct._zend_object = type { %struct._zend_refcounted_h, i32, i32, ptr, ptr, ptr, [1 x %struct._zval_struct] }
%struct._spl_ptr_llist = type { ptr, ptr, i32 }
%struct._spl_ptr_llist_element = type { ptr, ptr, %struct._zval_struct }
%struct._zend_refcounted = type { %struct._zend_refcounted_h }
%struct.anon.0 = type { i8, i8, %union.anon.1 }
%union.anon.1 = type { i16 }

@executor_globals = external global %struct._zend_executor_globals, align 8

; Function Attrs: alwaysinline nounwind uwtable
define internal i32 @zend_gc_addref(ptr noundef %0) #6 {
  %2 = alloca ptr, align 8
  store ptr %0, ptr %2, align 8, !tbaa !77
  br label %3

3:                                                ; preds = %1
  br label %4

4:                                                ; preds = %3
  %5 = load ptr, ptr %2, align 8, !tbaa !77
  %6 = getelementptr inbounds nuw %struct._zend_refcounted_h, ptr %5, i32 0, i32 0
  %7 = load i32, ptr %6, align 4, !tbaa !79
  %8 = add i32 %7, 1
  store i32 %8, ptr %6, align 4, !tbaa !79
  ret i32 %8
}

; Function Attrs: alwaysinline nounwind uwtable
define internal i32 @zval_addref_p(ptr noundef %0) #6 {
  %2 = alloca ptr, align 8
  store ptr %0, ptr %2, align 8, !tbaa !9
  %3 = load ptr, ptr %2, align 8, !tbaa !9
  %4 = getelementptr inbounds nuw %struct._zval_struct, ptr %3, i32 0, i32 1
  %5 = getelementptr inbounds nuw %struct.anon.0, ptr %4, i32 0, i32 1
  %6 = load i8, ptr %5, align 1, !tbaa !11
  %7 = zext i8 %6 to i32
  %8 = icmp ne i32 %7, 0
  call void @llvm.assume(i1 %8)
  %9 = load ptr, ptr %2, align 8, !tbaa !9
  %10 = getelementptr inbounds nuw %struct._zval_struct, ptr %9, i32 0, i32 0
  %11 = load ptr, ptr %10, align 8, !tbaa !11
  %12 = getelementptr inbounds nuw %struct._zend_refcounted, ptr %11, i32 0, i32 0
  %13 = call i32 @zend_gc_addref(ptr noundef %12)
  ret i32 %13
}

; Function Attrs: inlinehint nounwind uwtable
define internal ptr @spl_dllist_from_obj(ptr noundef %0) #4 {
  %2 = alloca ptr, align 8
  store ptr %0, ptr %2, align 8, !tbaa !54
  %3 = load ptr, ptr %2, align 8, !tbaa !54
  %4 = getelementptr inbounds i8, ptr %3, i64 -72
  ret ptr %4
}

; Function Attrs: nounwind uwtable
define hidden void @zim_SplDoublyLinkedList___serialize(ptr noundef %0, ptr noundef %1) #0 {
  %3 = alloca ptr, align 8
  %4 = alloca ptr, align 8
  %5 = alloca ptr, align 8
  %6 = alloca ptr, align 8
  %7 = alloca %struct._zval_struct, align 8
  %8 = alloca i32, align 4
  %9 = alloca ptr, align 8
  %10 = alloca ptr, align 8
  %11 = alloca ptr, align 8
  %12 = alloca ptr, align 8
  %13 = alloca ptr, align 8
  %14 = alloca ptr, align 8
  %15 = alloca ptr, align 8
  %16 = alloca ptr, align 8
  store ptr %0, ptr %3, align 8, !tbaa !4
  store ptr %1, ptr %4, align 8, !tbaa !9
  call void @llvm.lifetime.start.p0(i64 8, ptr %5) #14
  %17 = load ptr, ptr %3, align 8, !tbaa !4
  %18 = getelementptr inbounds nuw %struct._zend_execute_data, ptr %17, i32 0, i32 4
  %19 = getelementptr inbounds nuw %struct._zval_struct, ptr %18, i32 0, i32 0
  %20 = load ptr, ptr %19, align 8, !tbaa !11
  %21 = call ptr @spl_dllist_from_obj(ptr noundef %20)
  store ptr %21, ptr %5, align 8, !tbaa !45
  call void @llvm.lifetime.start.p0(i64 8, ptr %6) #14
  %22 = load ptr, ptr %5, align 8, !tbaa !45
  %23 = getelementptr inbounds nuw %struct._spl_dllist_object, ptr %22, i32 0, i32 0
  %24 = load ptr, ptr %23, align 8, !tbaa !47
  %25 = getelementptr inbounds nuw %struct._spl_ptr_llist, ptr %24, i32 0, i32 0
  %26 = load ptr, ptr %25, align 8, !tbaa !65
  store ptr %26, ptr %6, align 8, !tbaa !56
  call void @llvm.lifetime.start.p0(i64 16, ptr %7) #14
  %27 = load ptr, ptr %3, align 8, !tbaa !4
  %28 = getelementptr inbounds nuw %struct._zend_execute_data, ptr %27, i32 0, i32 4
  %29 = getelementptr inbounds nuw %struct._zval_struct, ptr %28, i32 0, i32 2
  %30 = load i32, ptr %29, align 4, !tbaa !11
  %31 = icmp eq i32 %30, 0
  %32 = xor i1 %31, true
  %33 = xor i1 %32, true
  %34 = zext i1 %33 to i32
  %35 = sext i32 %34 to i64
  %36 = call i64 @llvm.expect.i64(i64 %35, i64 1)
  %37 = icmp ne i64 %36, 0
  br i1 %37, label %38, label %39

38:                                               ; preds = %2
  br label %40

39:                                               ; preds = %2
  call void @zend_wrong_parameters_none_error()
  br label %40

40:                                               ; preds = %39, %38
  %41 = phi i32 [ 0, %38 ], [ -1, %39 ]
  %42 = icmp eq i32 %41, -1
  br i1 %42, label %43, label %49

43:                                               ; preds = %40
  br label %44

44:                                               ; preds = %43
  %45 = load ptr, ptr getelementptr inbounds nuw (%struct._zend_executor_globals, ptr @executor_globals, i32 0, i32 54), align 8, !tbaa !12
  %46 = icmp ne ptr %45, null
  call void @llvm.assume(i1 %46)
  store i32 1, ptr %8, align 4
  br label %164

47:                                               ; No predecessors!
  br label %48

48:                                               ; preds = %47
  br label %49

49:                                               ; preds = %48, %40
  br label %50

50:                                               ; preds = %49
  call void @llvm.lifetime.start.p0(i64 8, ptr %9) #14
  %51 = call ptr @_zend_new_array_0()
  store ptr %51, ptr %9, align 8, !tbaa !93
  call void @llvm.lifetime.start.p0(i64 8, ptr %10) #14
  %52 = load ptr, ptr %4, align 8, !tbaa !9
  store ptr %52, ptr %10, align 8, !tbaa !9
  %53 = load ptr, ptr %9, align 8, !tbaa !93
  %54 = load ptr, ptr %10, align 8, !tbaa !9
  %55 = getelementptr inbounds nuw %struct._zval_struct, ptr %54, i32 0, i32 0
  store ptr %53, ptr %55, align 8, !tbaa !11
  %56 = load ptr, ptr %10, align 8, !tbaa !9
  %57 = getelementptr inbounds nuw %struct._zval_struct, ptr %56, i32 0, i32 1
  store i32 775, ptr %57, align 8, !tbaa !11
  call void @llvm.lifetime.end.p0(i64 8, ptr %10) #14
  call void @llvm.lifetime.end.p0(i64 8, ptr %9) #14
  br label %58

58:                                               ; preds = %50
  br label %59

59:                                               ; preds = %58
  br label %60

60:                                               ; preds = %59
  call void @llvm.lifetime.start.p0(i64 8, ptr %11) #14
  store ptr %7, ptr %11, align 8, !tbaa !9
  %61 = load ptr, ptr %5, align 8, !tbaa !45
  %62 = getelementptr inbounds nuw %struct._spl_dllist_object, ptr %61, i32 0, i32 3
  %63 = load i32, ptr %62, align 4, !tbaa !73
  %64 = sext i32 %63 to i64
  %65 = load ptr, ptr %11, align 8, !tbaa !9
  %66 = getelementptr inbounds nuw %struct._zval_struct, ptr %65, i32 0, i32 0
  store i64 %64, ptr %66, align 8, !tbaa !11
  %67 = load ptr, ptr %11, align 8, !tbaa !9
  %68 = getelementptr inbounds nuw %struct._zval_struct, ptr %67, i32 0, i32 1
  store i32 4, ptr %68, align 8, !tbaa !11
  call void @llvm.lifetime.end.p0(i64 8, ptr %11) #14
  br label %69

69:                                               ; preds = %60
  br label %70

70:                                               ; preds = %69
  %71 = load ptr, ptr %4, align 8, !tbaa !9
  %72 = getelementptr inbounds nuw %struct._zval_struct, ptr %71, i32 0, i32 0
  %73 = load ptr, ptr %72, align 8, !tbaa !11
  %74 = call ptr @zend_hash_next_index_insert(ptr noundef %73, ptr noundef %7)
  br label %75

75:                                               ; preds = %70
  call void @llvm.lifetime.start.p0(i64 8, ptr %12) #14
  %76 = load ptr, ptr %5, align 8, !tbaa !45
  %77 = getelementptr inbounds nuw %struct._spl_dllist_object, ptr %76, i32 0, i32 0
  %78 = load ptr, ptr %77, align 8, !tbaa !47
  %79 = getelementptr inbounds nuw %struct._spl_ptr_llist, ptr %78, i32 0, i32 2
  %80 = load i32, ptr %79, align 8, !tbaa !66
  %81 = call i1 @llvm.is.constant.i32(i32 %80)
  br i1 %81, label %82, label %100

82:                                               ; preds = %75
  %83 = load ptr, ptr %5, align 8, !tbaa !45
  %84 = getelementptr inbounds nuw %struct._spl_dllist_object, ptr %83, i32 0, i32 0
  %85 = load ptr, ptr %84, align 8, !tbaa !47
  %86 = getelementptr inbounds nuw %struct._spl_ptr_llist, ptr %85, i32 0, i32 2
  %87 = load i32, ptr %86, align 8, !tbaa !66
  %88 = icmp ule i32 %87, 8
  br i1 %88, label %89, label %91

89:                                               ; preds = %82
  %90 = call ptr @_zend_new_array_0()
  br label %98

91:                                               ; preds = %82
  %92 = load ptr, ptr %5, align 8, !tbaa !45
  %93 = getelementptr inbounds nuw %struct._spl_dllist_object, ptr %92, i32 0, i32 0
  %94 = load ptr, ptr %93, align 8, !tbaa !47
  %95 = getelementptr inbounds nuw %struct._spl_ptr_llist, ptr %94, i32 0, i32 2
  %96 = load i32, ptr %95, align 8, !tbaa !66
  %97 = call ptr @_zend_new_array(i32 noundef %96)
  br label %98

98:                                               ; preds = %91, %89
  %99 = phi ptr [ %90, %89 ], [ %97, %91 ]
  br label %107

100:                                              ; preds = %75
  %101 = load ptr, ptr %5, align 8, !tbaa !45
  %102 = getelementptr inbounds nuw %struct._spl_dllist_object, ptr %101, i32 0, i32 0
  %103 = load ptr, ptr %102, align 8, !tbaa !47
  %104 = getelementptr inbounds nuw %struct._spl_ptr_llist, ptr %103, i32 0, i32 2
  %105 = load i32, ptr %104, align 8, !tbaa !66
  %106 = call ptr @_zend_new_array(i32 noundef %105)
  br label %107

107:                                              ; preds = %100, %98
  %108 = phi ptr [ %99, %98 ], [ %106, %100 ]
  store ptr %108, ptr %12, align 8, !tbaa !93
  call void @llvm.lifetime.start.p0(i64 8, ptr %13) #14
  store ptr %7, ptr %13, align 8, !tbaa !9
  %109 = load ptr, ptr %12, align 8, !tbaa !93
  %110 = load ptr, ptr %13, align 8, !tbaa !9
  %111 = getelementptr inbounds nuw %struct._zval_struct, ptr %110, i32 0, i32 0
  store ptr %109, ptr %111, align 8, !tbaa !11
  %112 = load ptr, ptr %13, align 8, !tbaa !9
  %113 = getelementptr inbounds nuw %struct._zval_struct, ptr %112, i32 0, i32 1
  store i32 775, ptr %113, align 8, !tbaa !11
  call void @llvm.lifetime.end.p0(i64 8, ptr %13) #14
  call void @llvm.lifetime.end.p0(i64 8, ptr %12) #14
  br label %114

114:                                              ; preds = %107
  br label %115

115:                                              ; preds = %114
  br label %116

116:                                              ; preds = %139, %115
  %117 = load ptr, ptr %6, align 8, !tbaa !56
  %118 = icmp ne ptr %117, null
  br i1 %118, label %119, label %143

119:                                              ; preds = %116
  %120 = getelementptr inbounds nuw %struct._zval_struct, ptr %7, i32 0, i32 0
  %121 = load ptr, ptr %120, align 8, !tbaa !11
  %122 = load ptr, ptr %6, align 8, !tbaa !56
  %123 = getelementptr inbounds nuw %struct._spl_ptr_llist_element, ptr %122, i32 0, i32 2
  %124 = call ptr @zend_hash_next_index_insert(ptr noundef %121, ptr noundef %123)
  br label %125

125:                                              ; preds = %119
  call void @llvm.lifetime.start.p0(i64 8, ptr %14) #14
  %126 = load ptr, ptr %6, align 8, !tbaa !56
  %127 = getelementptr inbounds nuw %struct._spl_ptr_llist_element, ptr %126, i32 0, i32 2
  store ptr %127, ptr %14, align 8, !tbaa !9
  %128 = load ptr, ptr %14, align 8, !tbaa !9
  %129 = getelementptr inbounds nuw %struct._zval_struct, ptr %128, i32 0, i32 1
  %130 = getelementptr inbounds nuw %struct.anon.0, ptr %129, i32 0, i32 1
  %131 = load i8, ptr %130, align 1, !tbaa !11
  %132 = zext i8 %131 to i32
  %133 = icmp ne i32 %132, 0
  br i1 %133, label %134, label %137

134:                                              ; preds = %125
  %135 = load ptr, ptr %14, align 8, !tbaa !9
  %136 = call i32 @zval_addref_p(ptr noundef %135)
  br label %137

137:                                              ; preds = %134, %125
  call void @llvm.lifetime.end.p0(i64 8, ptr %14) #14
  br label %138

138:                                              ; preds = %137
  br label %139

139:                                              ; preds = %138
  %140 = load ptr, ptr %6, align 8, !tbaa !56
  %141 = getelementptr inbounds nuw %struct._spl_ptr_llist_element, ptr %140, i32 0, i32 1
  %142 = load ptr, ptr %141, align 8, !tbaa !61
  store ptr %142, ptr %6, align 8, !tbaa !56
  br label %116

143:                                              ; preds = %116
  %144 = load ptr, ptr %4, align 8, !tbaa !9
  %145 = getelementptr inbounds nuw %struct._zval_struct, ptr %144, i32 0, i32 0
  %146 = load ptr, ptr %145, align 8, !tbaa !11
  %147 = call ptr @zend_hash_next_index_insert(ptr noundef %146, ptr noundef %7)
  br label %148

148:                                              ; preds = %143
  call void @llvm.lifetime.start.p0(i64 8, ptr %15) #14
  %149 = load ptr, ptr %5, align 8, !tbaa !45
  %150 = getelementptr inbounds nuw %struct._spl_dllist_object, ptr %149, i32 0, i32 10
  %151 = call ptr @zend_std_get_properties(ptr noundef %150)
  %152 = call ptr @zend_proptable_to_symtable(ptr noundef %151, i1 noundef zeroext true)
  store ptr %152, ptr %15, align 8, !tbaa !93
  call void @llvm.lifetime.start.p0(i64 8, ptr %16) #14
  store ptr %7, ptr %16, align 8, !tbaa !9
  %153 = load ptr, ptr %15, align 8, !tbaa !93
  %154 = load ptr, ptr %16, align 8, !tbaa !9
  %155 = getelementptr inbounds nuw %struct._zval_struct, ptr %154, i32 0, i32 0
  store ptr %153, ptr %155, align 8, !tbaa !11
  %156 = load ptr, ptr %16, align 8, !tbaa !9
  %157 = getelementptr inbounds nuw %struct._zval_struct, ptr %156, i32 0, i32 1
  store i32 775, ptr %157, align 8, !tbaa !11
  call void @llvm.lifetime.end.p0(i64 8, ptr %16) #14
  call void @llvm.lifetime.end.p0(i64 8, ptr %15) #14
  br label %158

158:                                              ; preds = %148
  br label %159

159:                                              ; preds = %158
  %160 = load ptr, ptr %4, align 8, !tbaa !9
  %161 = getelementptr inbounds nuw %struct._zval_struct, ptr %160, i32 0, i32 0
  %162 = load ptr, ptr %161, align 8, !tbaa !11
  %163 = call ptr @zend_hash_next_index_insert(ptr noundef %162, ptr noundef %7)
  store i32 0, ptr %8, align 4
  br label %164

164:                                              ; preds = %159, %44
  call void @llvm.lifetime.end.p0(i64 16, ptr %7) #14
  call void @llvm.lifetime.end.p0(i64 8, ptr %6) #14
  call void @llvm.lifetime.end.p0(i64 8, ptr %5) #14
  %165 = load i32, ptr %8, align 4
  switch i32 %165, label %167 [
    i32 0, label %166
    i32 1, label %166
  ]

166:                                              ; preds = %164, %164
  ret void

167:                                              ; preds = %164
  unreachable
}