; Function Attrs: nounwind uwtable
define hidden void @zim_SplDoublyLinkedList___serialize(ptr noundef readonly captures(none) %0, ptr noundef captures(none) %1) #0 {
  %3 = alloca %struct._zval_struct, align 8
  %4 = getelementptr inbounds nuw i8, ptr %0, i64 32
  %5 = load ptr, ptr %4, align 8, !tbaa !4
  %6 = getelementptr inbounds i8, ptr %5, i64 -72
  %7 = load ptr, ptr %6, align 8, !tbaa !43
  %8 = load ptr, ptr %7, align 8, !tbaa !57
  call void @llvm.lifetime.start.p0(i64 16, ptr nonnull %3) #13
  %9 = getelementptr inbounds nuw i8, ptr %0, i64 44
  %10 = load i32, ptr %9, align 4, !tbaa !4
  %.not = icmp eq i32 %10, 0
  br i1 %.not, label %.critedge, label %11, !prof !59

11:                                               ; preds = %2
  tail call void @zend_wrong_parameters_none_error() #13
  %12 = load ptr, ptr getelementptr inbounds nuw (i8, ptr @executor_globals, i64 960), align 8, !tbaa !7
  %13 = icmp ne ptr %12, null
  tail call void @llvm.assume(i1 %13)
  br label %43

.critedge:                                        ; preds = %2
  %14 = tail call ptr @_zend_new_array_0() #13
  store ptr %14, ptr %1, align 8, !tbaa !4
  %15 = getelementptr inbounds nuw i8, ptr %1, i64 8
  store i32 775, ptr %15, align 8, !tbaa !4
  %16 = getelementptr inbounds i8, ptr %5, i64 -52
  %17 = load i32, ptr %16, align 4, !tbaa !66
  %18 = sext i32 %17 to i64
  store i64 %18, ptr %3, align 8, !tbaa !4
  %19 = getelementptr inbounds nuw i8, ptr %3, i64 8
  store i32 4, ptr %19, align 8, !tbaa !4
  %20 = call ptr @zend_hash_next_index_insert(ptr noundef %14, ptr noundef nonnull %3) #13
  %21 = load ptr, ptr %6, align 8, !tbaa !43
  %22 = getelementptr inbounds nuw i8, ptr %21, i64 16
  %23 = load i32, ptr %22, align 8, !tbaa !58
  %24 = call ptr @_zend_new_array(i32 noundef %23) #13
  store ptr %24, ptr %3, align 8, !tbaa !4
  store i32 775, ptr %19, align 8, !tbaa !4
  %.not3133 = icmp eq ptr %8, null
  br i1 %.not3133, label %._crit_edge, label %.lr.ph

.lr.ph:                                           ; preds = %.critedge, %34
  %.034 = phi ptr [ %36, %34 ], [ %8, %.critedge ]
  %25 = load ptr, ptr %3, align 8, !tbaa !4
  %26 = getelementptr inbounds nuw i8, ptr %.034, i64 16
  %27 = call ptr @zend_hash_next_index_insert(ptr noundef %25, ptr noundef nonnull %26) #13
  %28 = getelementptr inbounds nuw i8, ptr %.034, i64 25
  %29 = load i8, ptr %28, align 1, !tbaa !4
  %.not32 = icmp eq i8 %29, 0
  br i1 %.not32, label %34, label %30

30:                                               ; preds = %.lr.ph
  %31 = load ptr, ptr %26, align 8, !tbaa !4
  %32 = load i32, ptr %31, align 4, !tbaa !56
  %33 = add i32 %32, 1
  store i32 %33, ptr %31, align 4, !tbaa !56
  br label %34

34:                                               ; preds = %30, %.lr.ph
  %35 = getelementptr inbounds nuw i8, ptr %.034, i64 8
  %36 = load ptr, ptr %35, align 8, !tbaa !55
  %.not31 = icmp eq ptr %36, null
  br i1 %.not31, label %._crit_edge, label %.lr.ph

._crit_edge:                                      ; preds = %34, %.critedge
  %37 = load ptr, ptr %1, align 8, !tbaa !4
  %38 = call ptr @zend_hash_next_index_insert(ptr noundef %37, ptr noundef nonnull %3) #13
  %39 = call ptr @zend_std_get_properties(ptr noundef nonnull %5) #13
  %40 = call ptr @zend_proptable_to_symtable(ptr noundef %39, i1 noundef zeroext true) #13
  store ptr %40, ptr %3, align 8, !tbaa !4
  store i32 775, ptr %19, align 8, !tbaa !4
  %41 = load ptr, ptr %1, align 8, !tbaa !4
  %42 = call ptr @zend_hash_next_index_insert(ptr noundef %41, ptr noundef nonnull %3) #13
  br label %43

43:                                               ; preds = %._crit_edge, %11
  call void @llvm.lifetime.end.p0(i64 16, ptr nonnull %3) #13
  ret void
}